target datalayout = "e-m:e-p270:32:32-p271:32:32-p272:64:64-i64:64-i128:128-f80:128-n8:16:32:64-S128"
target triple = "x86_64-pc-linux-gnu"

%struct.ECPGtype = type { i32, ptr, ptr, ptr, %union.anon, i32 }
%union.anon = type { ptr }
%struct.ECPGstruct_member = type { ptr, ptr, ptr }

@.str.7 = private unnamed_addr constant [90 x i8] c"internal error: unknown datatype, please report this to <pgsql-bugs@lists.postgresql.org>\00", align 1
@.str.13 = private unnamed_addr constant [46 x i8] c"internal error: found multidimensional array\0A\00", align 1
@.str.14 = private unnamed_addr constant [35 x i8] c"unrecognized variable type code %d\00", align 1

; Function Attrs: nounwind uwtable
define dso_local void @ECPGfree_struct_member(ptr noundef %0) #0 {
  %2 = alloca ptr, align 8
  %3 = alloca ptr, align 8
  store ptr %0, ptr %2, align 8
  br label %4

4:                                                ; preds = %7, %1
  %5 = load ptr, ptr %2, align 8
  %6 = icmp ne ptr %5, null
  br i1 %6, label %7, label %19

7:                                                ; preds = %4
  call void @llvm.lifetime.start.p0(i64 8, ptr %3) #7
  %8 = load ptr, ptr %2, align 8
  store ptr %8, ptr %3, align 8
  %9 = load ptr, ptr %2, align 8
  %10 = getelementptr inbounds nuw %struct.ECPGstruct_member, ptr %9, i32 0, i32 2
  %11 = load ptr, ptr %10, align 8
  store ptr %11, ptr %2, align 8
  %12 = load ptr, ptr %3, align 8
  %13 = getelementptr inbounds nuw %struct.ECPGstruct_member, ptr %12, i32 0, i32 0
  %14 = load ptr, ptr %13, align 8
  call void @free(ptr noundef %14) #7
  %15 = load ptr, ptr %3, align 8
  %16 = getelementptr inbounds nuw %struct.ECPGstruct_member, ptr %15, i32 0, i32 1
  %17 = load ptr, ptr %16, align 8
  call void @ECPGfree_type(ptr noundef %17)
  %18 = load ptr, ptr %3, align 8
  call void @free(ptr noundef %18) #7
  call void @llvm.lifetime.end.p0(i64 8, ptr %3) #7
  br label %4, !llvm.loop !8

19:                                               ; preds = %4
  ret void
}

; Function Attrs: nounwind uwtable
define dso_local void @ECPGfree_type(ptr noundef %0) #0 {
  %2 = alloca ptr, align 8
  store ptr %0, ptr %2, align 8
  %3 = load ptr, ptr %2, align 8
  %4 = getelementptr inbounds nuw %struct.ECPGtype, ptr %3, i32 0, i32 0
  %5 = load i32, ptr %4, align 8
  %6 = icmp uge i32 %5, 1
  br i1 %6, label %7, label %12

7:                                                ; preds = %1
  %8 = load ptr, ptr %2, align 8
  %9 = getelementptr inbounds nuw %struct.ECPGtype, ptr %8, i32 0, i32 0
  %10 = load i32, ptr %9, align 8
  %11 = icmp ule i32 %10, 20
  br i1 %11, label %80, label %12

12:                                               ; preds = %7, %1
  %13 = load ptr, ptr %2, align 8
  %14 = getelementptr inbounds nuw %struct.ECPGtype, ptr %13, i32 0, i32 0
  %15 = load i32, ptr %14, align 8
  %16 = icmp eq i32 %15, 30
  br i1 %16, label %80, label %17

17:                                               ; preds = %12
  %18 = load ptr, ptr %2, align 8
  %19 = getelementptr inbounds nuw %struct.ECPGtype, ptr %18, i32 0, i32 0
  %20 = load i32, ptr %19, align 8
  %21 = icmp eq i32 %20, 32
  br i1 %21, label %80, label %22

22:                                               ; preds = %17
  %23 = load ptr, ptr %2, align 8
  %24 = getelementptr inbounds nuw %struct.ECPGtype, ptr %23, i32 0, i32 0
  %25 = load i32, ptr %24, align 8
  switch i32 %25, label %75 [
    i32 21, label %26
    i32 22, label %71
    i32 23, label %71
  ]

26:                                               ; preds = %22
  %27 = load ptr, ptr %2, align 8
  %28 = getelementptr inbounds nuw %struct.ECPGtype, ptr %27, i32 0, i32 4
  %29 = load ptr, ptr %28, align 8
  %30 = getelementptr inbounds nuw %struct.ECPGtype, ptr %29, i32 0, i32 0
  %31 = load i32, ptr %30, align 8
  switch i32 %31, label %37 [
    i32 21, label %32
    i32 22, label %33
    i32 23, label %33
  ]

32:                                               ; preds = %26
  call void @base_yyerror(ptr noundef @.str.13)
  br label %70

33:                                               ; preds = %26, %26
  %34 = load ptr, ptr %2, align 8
  %35 = getelementptr inbounds nuw %struct.ECPGtype, ptr %34, i32 0, i32 4
  %36 = load ptr, ptr %35, align 8
  call void @ECPGfree_type(ptr noundef %36)
  br label %70

37:                                               ; preds = %26
  %38 = load ptr, ptr %2, align 8
  %39 = getelementptr inbounds nuw %struct.ECPGtype, ptr %38, i32 0, i32 4
  %40 = load ptr, ptr %39, align 8
  %41 = getelementptr inbounds nuw %struct.ECPGtype, ptr %40, i32 0, i32 0
  %42 = load i32, ptr %41, align 8
  %43 = icmp uge i32 %42, 1
  br i1 %43, label %44, label %51

44:                                               ; preds = %37
  %45 = load ptr, ptr %2, align 8
  %46 = getelementptr inbounds nuw %struct.ECPGtype, ptr %45, i32 0, i32 4
  %47 = load ptr, ptr %46, align 8
  %48 = getelementptr inbounds nuw %struct.ECPGtype, ptr %47, i32 0, i32 0
  %49 = load i32, ptr %48, align 8
  %50 = icmp ule i32 %49, 20
  br i1 %50, label %66, label %51

51:                                               ; preds = %44, %37
  %52 = load ptr, ptr %2, align 8
  %53 = getelementptr inbounds nuw %struct.ECPGtype, ptr %52, i32 0, i32 4
  %54 = load ptr, ptr %53, align 8
  %55 = getelementptr inbounds nuw %struct.ECPGtype, ptr %54, i32 0, i32 0
  %56 = load i32, ptr %55, align 8
  %57 = icmp eq i32 %56, 30
  br i1 %57, label %66, label %58

58:                                               ; preds = %51
  %59 = load ptr, ptr %2, align 8
  %60 = getelementptr inbounds nuw %struct.ECPGtype, ptr %59, i32 0, i32 4
  %61 = load ptr, ptr %60, align 8
  %62 = getelementptr inbounds nuw %struct.ECPGtype, ptr %61, i32 0, i32 0
  %63 = load i32, ptr %62, align 8
  %64 = icmp eq i32 %63, 32
  br i1 %64, label %66, label %65

65:                                               ; preds = %58
  call void @base_yyerror(ptr noundef @.str.7)
  br label %66

66:                                               ; preds = %65, %58, %51, %44
  %67 = load ptr, ptr %2, align 8
  %68 = getelementptr inbounds nuw %struct.ECPGtype, ptr %67, i32 0, i32 4
  %69 = load ptr, ptr %68, align 8
  call void @ECPGfree_type(ptr noundef %69)
  br label %70

70:                                               ; preds = %66, %33, %32
  br label %79

71:                                               ; preds = %22, %22
  %72 = load ptr, ptr %2, align 8
  %73 = getelementptr inbounds nuw %struct.ECPGtype, ptr %72, i32 0, i32 4
  %74 = load ptr, ptr %73, align 8
  call void @ECPGfree_struct_member(ptr noundef %74)
  br label %79

75:                                               ; preds = %22
  %76 = load ptr, ptr %2, align 8
  %77 = getelementptr inbounds nuw %struct.ECPGtype, ptr %76, i32 0, i32 0
  %78 = load i32, ptr %77, align 8
  call void (i32, i32, ptr, ...) @mmerror(i32 noundef 3, i32 noundef 1, ptr noundef @.str.14, i32 noundef %78)
  br label %79

79:                                               ; preds = %75, %71, %70
  br label %80

80:                                               ; preds = %79, %17, %12, %7
  %81 = load ptr, ptr %2, align 8
  %82 = getelementptr inbounds nuw %struct.ECPGtype, ptr %81, i32 0, i32 1
  %83 = load ptr, ptr %82, align 8
  call void @free(ptr noundef %83) #7
  %84 = load ptr, ptr %2, align 8
  %85 = getelementptr inbounds nuw %struct.ECPGtype, ptr %84, i32 0, i32 2
  %86 = load ptr, ptr %85, align 8
  call void @free(ptr noundef %86) #7
  %87 = load ptr, ptr %2, align 8
  %88 = getelementptr inbounds nuw %struct.ECPGtype, ptr %87, i32 0, i32 3
  %89 = load ptr, ptr %88, align 8
  call void @free(ptr noundef %89) #7
  %90 = load ptr, ptr %2, align 8
  call void @free(ptr noundef %90) #7
  ret void
}