; Function Attrs: nounwind uwtable
define dso_local void @ECPGfree_type(ptr noundef captures(none) %0) local_unnamed_addr #0 {
  %2 = load i32, ptr %0, align 8
  %3 = add i32 %2, -1
  %or.cond = icmp ult i32 %3, 20
  br i1 %or.cond, label %ECPGfree_struct_member.exit, label %4

4:                                                ; preds = %1
  switch i32 %2, label %24 [
    i32 30, label %ECPGfree_struct_member.exit
    i32 32, label %ECPGfree_struct_member.exit
    i32 21, label %5
    i32 22, label %16
    i32 23, label %16
  ]

5:                                                ; preds = %4
  %6 = getelementptr inbounds nuw i8, ptr %0, i64 32
  %7 = load ptr, ptr %6, align 8
  %8 = load i32, ptr %7, align 8
  switch i32 %8, label %11 [
    i32 21, label %9
    i32 22, label %10
    i32 23, label %10
    i32 0, label %.thread
  ]

9:                                                ; preds = %5
  tail call void @base_yyerror(ptr noundef nonnull @.str.13) #7
  br label %ECPGfree_struct_member.exit

10:                                               ; preds = %5, %5
  tail call void @ECPGfree_type(ptr noundef nonnull %7)
  br label %ECPGfree_struct_member.exit

11:                                               ; preds = %5
  %12 = icmp ult i32 %8, 21
  br i1 %12, label %14, label %13

13:                                               ; preds = %11
  switch i32 %8, label %.thread [
    i32 30, label %14
    i32 32, label %14
  ]

.thread:                                          ; preds = %5, %13
  tail call void @base_yyerror(ptr noundef nonnull @.str.7) #7
  %.pre = load ptr, ptr %6, align 8
  br label %14

14:                                               ; preds = %13, %13, %.thread, %11
  %15 = phi ptr [ %7, %13 ], [ %7, %13 ], [ %.pre, %.thread ], [ %7, %11 ]
  tail call void @ECPGfree_type(ptr noundef %15)
  br label %ECPGfree_struct_member.exit

16:                                               ; preds = %4, %4
  %17 = getelementptr inbounds nuw i8, ptr %0, i64 32
  %18 = load ptr, ptr %17, align 8
  %.not.i22 = icmp eq ptr %18, null
  br i1 %.not.i22, label %ECPGfree_struct_member.exit, label %.lr.ph

.lr.ph:                                           ; preds = %16, %.lr.ph
  %.0.i23 = phi ptr [ %20, %.lr.ph ], [ %18, %16 ]
  %19 = getelementptr inbounds nuw i8, ptr %.0.i23, i64 16
  %20 = load ptr, ptr %19, align 8
  %21 = load ptr, ptr %.0.i23, align 8
  tail call void @free(ptr noundef %21) #7
  %22 = getelementptr inbounds nuw i8, ptr %.0.i23, i64 8
  %23 = load ptr, ptr %22, align 8
  tail call void @ECPGfree_type(ptr noundef %23)
  tail call void @free(ptr noundef nonnull %.0.i23) #7
  %.not.i = icmp eq ptr %20, null
  br i1 %.not.i, label %ECPGfree_struct_member.exit, label %.lr.ph, !llvm.loop !8

24:                                               ; preds = %4
  tail call void (i32, i32, ptr, ...) @mmerror(i32 noundef 3, i32 noundef 1, ptr noundef nonnull @.str.14, i32 noundef %2) #7
  br label %ECPGfree_struct_member.exit

ECPGfree_struct_member.exit:                      ; preds = %.lr.ph, %16, %4, %4, %1, %24, %14, %10, %9
  %25 = getelementptr inbounds nuw i8, ptr %0, i64 8
  %26 = load ptr, ptr %25, align 8
  tail call void @free(ptr noundef %26) #7
  %27 = getelementptr inbounds nuw i8, ptr %0, i64 16
  %28 = load ptr, ptr %27, align 8
  tail call void @free(ptr noundef %28) #7
  %29 = getelementptr inbounds nuw i8, ptr %0, i64 24
  %30 = load ptr, ptr %29, align 8
  tail call void @free(ptr noundef %30) #7
  tail call void @free(ptr noundef %0) #7
  ret void
}